target datalayout = "e-m:e-p270:32:32-p271:32:32-p272:64:64-i64:64-i128:128-f80:128-n8:16:32:64-S128"
target triple = "x86_64-pc-linux-gnu"

; Function Attrs: mustprogress uwtable
define void @_ZN26MLSceneGLSharedDataContext20doneCurrentGLContextEP10QGLContext(ptr noundef nonnull align 8 dereferenceable(168) %0, ptr noundef %1) #5 align 2 {
  %3 = alloca ptr, align 8
  %4 = alloca ptr, align 8
  store ptr %0, ptr %3, align 8
  store ptr %1, ptr %4, align 8
  %5 = load ptr, ptr %3, align 8
  call void @_ZN9QGLWidget11doneCurrentEv(ptr noundef nonnull align 8 dereferenceable(48) %5)
  %6 = load ptr, ptr %4, align 8
  %7 = icmp ne ptr %6, null
  br i1 %7, label %8, label %13

8:                                                ; preds = %2
  %9 = load ptr, ptr %4, align 8
  %10 = load ptr, ptr %9, align 8
  %11 = getelementptr inbounds ptr, ptr %10, i64 3
  %12 = load ptr, ptr %11, align 8
  call void %12(ptr noundef nonnull align 8 dereferenceable(16) %9)
  br label %13

13:                                               ; preds = %8, %2
  ret void
}

; Function Attrs: mustprogress uwtable
define noundef ptr @_ZN26MLSceneGLSharedDataContext20makeCurrentGLContextEv(ptr noundef nonnull align 8 dereferenceable(168) %0) #5 align 2 {
  %2 = alloca ptr, align 8
  %3 = alloca ptr, align 8
  store ptr %0, ptr %2, align 8
  %4 = load ptr, ptr %2, align 8
  %5 = call noundef ptr @_ZN10QGLContext14currentContextEv()
  store ptr %5, ptr %3, align 8
  call void @_ZN9QGLWidget11makeCurrentEv(ptr noundef nonnull align 8 dereferenceable(48) %4)
  %6 = load ptr, ptr %3, align 8
  ret ptr %6
}

; Function Attrs: mustprogress uwtable
define void @_ZN26MLSceneGLSharedDataContext16updateGPUMemInfoEv(ptr noundef nonnull align 8 dereferenceable(168) %0) #5 align 2 {
  %2 = alloca ptr, align 8
  %3 = alloca ptr, align 8
  %4 = alloca i32, align 4
  %5 = alloca i32, align 4
  %6 = alloca [4 x i32], align 16
  %7 = alloca [4 x i32], align 16
  store ptr %0, ptr %2, align 8
  %8 = load ptr, ptr %2, align 8
  %9 = load ptr, ptr %8, align 8
  %10 = getelementptr inbounds ptr, ptr %9, i64 54
  %11 = load ptr, ptr %10, align 8
  call void %11(ptr noundef nonnull align 8 dereferenceable(168) %8)
  %12 = call noundef ptr @_ZN26MLSceneGLSharedDataContext20makeCurrentGLContextEv(ptr noundef nonnull align 8 dereferenceable(168) %8)
  store ptr %12, ptr %3, align 8
  store i32 0, ptr %4, align 4
  call void @glGetIntegerv(i32 noundef 36936, ptr noundef %4)
  store i32 0, ptr %5, align 4
  call void @glGetIntegerv(i32 noundef 36937, ptr noundef %5)
  %13 = call i32 @glGetError()
  call void @llvm.memset.p0.i64(ptr align 16 %6, i8 0, i64 16, i1 false)
  %14 = getelementptr inbounds [4 x i32], ptr %6, i64 0, i64 0
  call void @glGetIntegerv(i32 noundef 34811, ptr noundef %14)
  call void @llvm.memset.p0.i64(ptr align 16 %7, i8 0, i64 16, i1 false)
  %15 = getelementptr inbounds [4 x i32], ptr %7, i64 0, i64 0
  call void @glGetIntegerv(i32 noundef 34812, ptr noundef %15)
  %16 = call i32 @glGetError()
  %17 = load ptr, ptr %3, align 8
  call void @_ZN26MLSceneGLSharedDataContext20doneCurrentGLContextEP10QGLContext(ptr noundef nonnull align 8 dereferenceable(168) %8, ptr noundef %17)
  %18 = load i32, ptr %4, align 4
  %19 = load i32, ptr %5, align 4
  %20 = getelementptr inbounds [4 x i32], ptr %7, i64 0, i64 0
  %21 = load i32, ptr %20, align 16
  %22 = getelementptr inbounds [4 x i32], ptr %6, i64 0, i64 0
  %23 = load i32, ptr %22, align 16
  call void @_ZN26MLSceneGLSharedDataContext22currentAllocatedGPUMemEiiii(ptr noundef nonnull align 8 dereferenceable(168) %8, i32 noundef %18, i32 noundef %19, i32 noundef %21, i32 noundef %23)
  ret void
}