; Function Attrs: mustprogress uwtable
define void @_ZN26MLSceneGLSharedDataContext16updateGPUMemInfoEv(ptr noundef nonnull align 8 dereferenceable(168) %0) local_unnamed_addr #9 align 2 {
  %2 = alloca i32, align 4
  %3 = alloca i32, align 4
  %4 = alloca [4 x i32], align 16
  %5 = alloca [4 x i32], align 16
  %6 = load ptr, ptr %0, align 8
  %7 = getelementptr inbounds i8, ptr %6, i64 432
  %8 = load ptr, ptr %7, align 8
  tail call void %8(ptr noundef nonnull align 8 dereferenceable(168) %0)
  %9 = tail call noundef ptr @_ZN10QGLContext14currentContextEv()
  tail call void @_ZN9QGLWidget11makeCurrentEv(ptr noundef nonnull align 8 dereferenceable(48) %0)
  store i32 0, ptr %2, align 4
  call void @glGetIntegerv(i32 noundef 36936, ptr noundef nonnull %2)
  store i32 0, ptr %3, align 4
  call void @glGetIntegerv(i32 noundef 36937, ptr noundef nonnull %3)
  %10 = call i32 @glGetError()
  call void @llvm.memset.p0.i64(ptr noundef nonnull align 16 dereferenceable(16) %4, i8 0, i64 16, i1 false)
  call void @glGetIntegerv(i32 noundef 34811, ptr noundef nonnull %4)
  call void @llvm.memset.p0.i64(ptr noundef nonnull align 16 dereferenceable(16) %5, i8 0, i64 16, i1 false)
  call void @glGetIntegerv(i32 noundef 34812, ptr noundef nonnull %5)
  %11 = call i32 @glGetError()
  call void @_ZN9QGLWidget11doneCurrentEv(ptr noundef nonnull align 8 dereferenceable(48) %0)
  %.not.i = icmp eq ptr %9, null
  br i1 %.not.i, label %_ZN26MLSceneGLSharedDataContext20doneCurrentGLContextEP10QGLContext.exit, label %12

12:                                               ; preds = %1
  %13 = load ptr, ptr %9, align 8
  %14 = getelementptr inbounds i8, ptr %13, i64 24
  %15 = load ptr, ptr %14, align 8
  call void %15(ptr noundef nonnull align 8 dereferenceable(16) %9)
  br label %_ZN26MLSceneGLSharedDataContext20doneCurrentGLContextEP10QGLContext.exit

_ZN26MLSceneGLSharedDataContext20doneCurrentGLContextEP10QGLContext.exit: ; preds = %1, %12
  %16 = load i32, ptr %2, align 4
  %17 = load i32, ptr %3, align 4
  %18 = load i32, ptr %5, align 16
  %19 = load i32, ptr %4, align 16
  call void @_ZN26MLSceneGLSharedDataContext22currentAllocatedGPUMemEiiii(ptr noundef nonnull align 8 dereferenceable(168) %0, i32 noundef %16, i32 noundef %17, i32 noundef %18, i32 noundef %19)
  ret void
}